; Function Attrs: uwtable
define void @_ZTv0_n56_NK5arrow2io22CompressedOutputStream4TellEv(ptr noalias nocapture writeonly sret(%"class.arrow::Result.13") align 8 %agg.result, ptr nocapture noundef readonly %this) unnamed_addr #8 align 2 personality ptr @__gxx_personality_v0 {
entry:
  %0 = load ptr, ptr %this, align 8
  %1 = getelementptr inbounds i8, ptr %0, i64 -56
  %2 = load i64, ptr %1, align 8
  %3 = getelementptr inbounds i8, ptr %this, i64 %2
  tail call void @llvm.experimental.noalias.scope.decl(metadata !50)
  %impl_.i = getelementptr inbounds i8, ptr %3, i64 8
  %4 = load ptr, ptr %impl_.i, align 8, !noalias !50
  tail call void @llvm.experimental.noalias.scope.decl(metadata !53)
  %lock_.i.i = getelementptr inbounds i8, ptr %4, i64 80
  %call1.i.i.i.i.i = tail call noundef i32 @pthread_mutex_lock(ptr noundef nonnull %lock_.i.i) #21, !noalias !56
  %tobool.not.i.i.i.i = icmp eq i32 %call1.i.i.i.i.i, 0
  br i1 %tobool.not.i.i.i.i, label %_ZNK5arrow2io22CompressedOutputStream4TellEv.exit, label %if.then.i.i.i.i

if.then.i.i.i.i:                                  ; preds = %entry
  tail call void @_ZSt20__throw_system_errori(i32 noundef %call1.i.i.i.i.i) #24, !noalias !56
  unreachable

_ZNK5arrow2io22CompressedOutputStream4TellEv.exit: ; preds = %entry
  %total_pos_.i.i = getelementptr inbounds i8, ptr %4, i64 72
  store ptr null, ptr %agg.result, align 8, !alias.scope !56
  %storage_.i.i.i.i = getelementptr inbounds i8, ptr %agg.result, i64 8
  %5 = load i64, ptr %total_pos_.i.i, align 8, !noalias !56
  store i64 %5, ptr %storage_.i.i.i.i, align 8, !alias.scope !56
  %call1.i.i.i1.i.i = tail call noundef i32 @pthread_mutex_unlock(ptr noundef nonnull %lock_.i.i) #21, !noalias !56
  ret void
}